target datalayout = "e-m:e-p270:32:32-p271:32:32-p272:64:64-i64:64-i128:128-f80:128-n8:16:32:64-S128"
target triple = "x86_64-pc-linux-gnu"

%struct.UConverterAlias = type { ptr, ptr, ptr, ptr, ptr, ptr, ptr, ptr, ptr, i32, i32, i32, i32, i32, i32, i32, i32, i32 }
%struct.UEnumeration = type { ptr, ptr, ptr, ptr, ptr, ptr, ptr }
%struct.UAliasContext = type { i32, i32 }

@_ZL10gMainTable = internal global %struct.UConverterAlias zeroinitializer, align 8

; Function Attrs: mustprogress nounwind uwtable
define internal noundef ptr @_ZL27ucnv_io_nextStandardAliasesP12UEnumerationPiP10UErrorCode(ptr noundef %0, ptr noundef %1, ptr noundef %2) #0 {
  %4 = alloca ptr, align 8
  %5 = alloca ptr, align 8
  %6 = alloca ptr, align 8
  %7 = alloca ptr, align 8
  %8 = alloca ptr, align 8
  %9 = alloca i32, align 4
  %10 = alloca i32, align 4
  %11 = alloca ptr, align 8
  %12 = alloca ptr, align 8
  %13 = alloca i32, align 4
  store ptr %0, ptr %5, align 8, !tbaa !37
  store ptr %1, ptr %6, align 8, !tbaa !61
  store ptr %2, ptr %7, align 8, !tbaa !17
  call void @llvm.lifetime.start.p0(i64 8, ptr %8) #12
  %14 = load ptr, ptr %5, align 8, !tbaa !37
  %15 = getelementptr inbounds nuw %struct.UEnumeration, ptr %14, i32 0, i32 1
  %16 = load ptr, ptr %15, align 8, !tbaa !45
  store ptr %16, ptr %8, align 8, !tbaa !40
  call void @llvm.lifetime.start.p0(i64 4, ptr %9) #12
  %17 = load ptr, ptr %8, align 8, !tbaa !40
  %18 = getelementptr inbounds nuw %struct.UAliasContext, ptr %17, i32 0, i32 0
  %19 = load i32, ptr %18, align 4, !tbaa !42
  store i32 %19, ptr %9, align 4, !tbaa !14
  %20 = load i32, ptr %9, align 4, !tbaa !14
  %21 = icmp ne i32 %20, 0
  br i1 %21, label %22, label %65

22:                                               ; preds = %3
  call void @llvm.lifetime.start.p0(i64 4, ptr %10) #12
  %23 = load ptr, ptr getelementptr inbounds nuw (%struct.UConverterAlias, ptr @_ZL10gMainTable, i32 0, i32 5), align 8, !tbaa !49
  %24 = load i32, ptr %9, align 4, !tbaa !14
  %25 = zext i32 %24 to i64
  %26 = getelementptr inbounds nuw i16, ptr %23, i64 %25
  %27 = load i16, ptr %26, align 2, !tbaa !23
  %28 = zext i16 %27 to i32
  store i32 %28, ptr %10, align 4, !tbaa !14
  call void @llvm.lifetime.start.p0(i64 8, ptr %11) #12
  %29 = load ptr, ptr getelementptr inbounds nuw (%struct.UConverterAlias, ptr @_ZL10gMainTable, i32 0, i32 5), align 8, !tbaa !49
  %30 = load i32, ptr %9, align 4, !tbaa !14
  %31 = zext i32 %30 to i64
  %32 = getelementptr inbounds nuw i16, ptr %29, i64 %31
  %33 = getelementptr inbounds i16, ptr %32, i64 1
  store ptr %33, ptr %11, align 8, !tbaa !53
  %34 = load ptr, ptr %8, align 8, !tbaa !40
  %35 = getelementptr inbounds nuw %struct.UAliasContext, ptr %34, i32 0, i32 1
  %36 = load i32, ptr %35, align 4, !tbaa !44
  %37 = load i32, ptr %10, align 4, !tbaa !14
  %38 = icmp ult i32 %36, %37
  br i1 %38, label %39, label %61

39:                                               ; preds = %22
  call void @llvm.lifetime.start.p0(i64 8, ptr %12) #12
  %40 = load ptr, ptr getelementptr inbounds nuw (%struct.UConverterAlias, ptr @_ZL10gMainTable, i32 0, i32 7), align 8, !tbaa !21
  %41 = load ptr, ptr %11, align 8, !tbaa !53
  %42 = load ptr, ptr %8, align 8, !tbaa !40
  %43 = getelementptr inbounds nuw %struct.UAliasContext, ptr %42, i32 0, i32 1
  %44 = load i32, ptr %43, align 4, !tbaa !44
  %45 = add i32 %44, 1
  store i32 %45, ptr %43, align 4, !tbaa !44
  %46 = zext i32 %44 to i64
  %47 = getelementptr inbounds nuw i16, ptr %41, i64 %46
  %48 = load i16, ptr %47, align 2, !tbaa !23
  %49 = zext i16 %48 to i32
  %50 = sext i32 %49 to i64
  %51 = getelementptr inbounds i16, ptr %40, i64 %50
  store ptr %51, ptr %12, align 8, !tbaa !3
  %52 = load ptr, ptr %6, align 8, !tbaa !61
  %53 = icmp ne ptr %52, null
  br i1 %53, label %54, label %59

54:                                               ; preds = %39
  %55 = load ptr, ptr %12, align 8, !tbaa !3
  %56 = call i64 @strlen(ptr noundef %55) #13
  %57 = trunc i64 %56 to i32
  %58 = load ptr, ptr %6, align 8, !tbaa !61
  store i32 %57, ptr %58, align 4, !tbaa !14
  br label %59

59:                                               ; preds = %54, %39
  %60 = load ptr, ptr %12, align 8, !tbaa !3
  store ptr %60, ptr %4, align 8
  store i32 1, ptr %13, align 4
  call void @llvm.lifetime.end.p0(i64 8, ptr %12) #12
  br label %62

61:                                               ; preds = %22
  store i32 0, ptr %13, align 4
  br label %62

62:                                               ; preds = %61, %59
  call void @llvm.lifetime.end.p0(i64 8, ptr %11) #12
  call void @llvm.lifetime.end.p0(i64 4, ptr %10) #12
  %63 = load i32, ptr %13, align 4
  switch i32 %63, label %71 [
    i32 0, label %64
  ]

64:                                               ; preds = %62
  br label %65

65:                                               ; preds = %64, %3
  %66 = load ptr, ptr %6, align 8, !tbaa !61
  %67 = icmp ne ptr %66, null
  br i1 %67, label %68, label %70

68:                                               ; preds = %65
  %69 = load ptr, ptr %6, align 8, !tbaa !61
  store i32 0, ptr %69, align 4, !tbaa !14
  br label %70

70:                                               ; preds = %68, %65
  store ptr null, ptr %4, align 8
  store i32 1, ptr %13, align 4
  br label %71

71:                                               ; preds = %70, %62
  call void @llvm.lifetime.end.p0(i64 4, ptr %9) #12
  call void @llvm.lifetime.end.p0(i64 8, ptr %8) #12
  %72 = load ptr, ptr %4, align 8
  ret ptr %72
}