; Function Attrs: mustprogress nofree nounwind willreturn memory(readwrite, inaccessiblemem: none) uwtable
define internal noundef ptr @_ZL27ucnv_io_nextStandardAliasesP12UEnumerationPiP10UErrorCode(ptr noundef readonly captures(none) %0, ptr noundef writeonly %1, ptr readnone captures(none) %2) #11 {
  %4 = getelementptr inbounds nuw i8, ptr %0, i64 8
  %5 = load ptr, ptr %4, align 8, !tbaa !53
  %6 = load i32, ptr %5, align 4, !tbaa !50
  %.not = icmp eq i32 %6, 0
  br i1 %.not, label %27, label %7

7:                                                ; preds = %3
  %8 = load ptr, ptr getelementptr inbounds nuw (i8, ptr @_ZL10gMainTable, i64 40), align 8, !tbaa !39
  %9 = zext i32 %6 to i64
  %10 = getelementptr inbounds nuw i16, ptr %8, i64 %9
  %11 = load i16, ptr %10, align 2, !tbaa !22
  %12 = zext i16 %11 to i32
  %13 = getelementptr inbounds nuw i8, ptr %5, i64 4
  %14 = load i32, ptr %13, align 4, !tbaa !52
  %.not22 = icmp ult i32 %14, %12
  br i1 %.not22, label %15, label %27

15:                                               ; preds = %7
  %16 = getelementptr inbounds nuw i8, ptr %10, i64 2
  %17 = load ptr, ptr getelementptr inbounds nuw (i8, ptr @_ZL10gMainTable, i64 56), align 8, !tbaa !20
  %18 = add nuw nsw i32 %14, 1
  store i32 %18, ptr %13, align 4, !tbaa !52
  %19 = zext nneg i32 %14 to i64
  %20 = getelementptr inbounds nuw i16, ptr %16, i64 %19
  %21 = load i16, ptr %20, align 2, !tbaa !22
  %22 = zext i16 %21 to i64
  %23 = getelementptr inbounds nuw i16, ptr %17, i64 %22
  %.not21 = icmp eq ptr %1, null
  br i1 %.not21, label %.thread, label %24

24:                                               ; preds = %15
  %25 = tail call i64 @strlen(ptr noundef nonnull dereferenceable(1) %23) #15
  %26 = trunc i64 %25 to i32
  br label %.thread.sink.split

27:                                               ; preds = %7, %3
  %.not23 = icmp eq ptr %1, null
  br i1 %.not23, label %.thread, label %.thread.sink.split

.thread.sink.split:                               ; preds = %27, %24
  %.sink = phi i32 [ %26, %24 ], [ 0, %27 ]
  %.1.ph = phi ptr [ %23, %24 ], [ null, %27 ]
  store i32 %.sink, ptr %1, align 4, !tbaa !24
  br label %.thread

.thread:                                          ; preds = %.thread.sink.split, %15, %27
  %.1 = phi ptr [ null, %27 ], [ %23, %15 ], [ %.1.ph, %.thread.sink.split ]
  ret ptr %.1
}